; ModuleID = 'source-C-CXX/22/741.c'
source_filename = "source-C-CXX/22/741.c"
target datalayout = "e-m:e-p270:32:32-p271:32:32-p272:64:64-i64:64-f80:128-n8:16:32:64-S128"
target triple = "x86_64-pc-linux-gnu"

@.str = private unnamed_addr constant [4 x i8] c"%s \00", align 1

; Function Attrs: nounwind sspstrong uwtable
define dso_local void @main() local_unnamed_addr #0 {
  %1 = alloca [105 x i8], align 16
  %2 = alloca [100 x [100 x i8]], align 16
  %3 = getelementptr inbounds [105 x i8], [105 x i8]* %1, i64 0, i64 0
  call void @llvm.lifetime.start.p0i8(i64 105, i8* nonnull %3) #6
  %4 = getelementptr inbounds [100 x [100 x i8]], [100 x [100 x i8]]* %2, i64 0, i64 0, i64 0
  call void @llvm.lifetime.start.p0i8(i64 10000, i8* nonnull %4) #6
  %5 = call i32 (i8*, ...) bitcast (i32 (...)* @gets to i32 (i8*, ...)*)(i8* nonnull %3) #6
  %6 = call i64 @strlen(i8* noundef nonnull %3) #7
  %7 = icmp eq i64 %6, 0
  br i1 %7, label %8, label %10

8:                                                ; preds = %0
  %9 = getelementptr inbounds [100 x [100 x i8]], [100 x [100 x i8]]* %2, i64 0, i64 0, i64 0
  store i8 0, i8* %9, align 16, !tbaa !5
  br label %42

10:                                               ; preds = %0, %24
  %11 = phi i64 [ %27, %24 ], [ 0, %0 ]
  %12 = phi i32 [ %26, %24 ], [ 0, %0 ]
  %13 = phi i32 [ %25, %24 ], [ 0, %0 ]
  %14 = getelementptr inbounds [105 x i8], [105 x i8]* %1, i64 0, i64 %11
  %15 = load i8, i8* %14, align 1, !tbaa !5
  %16 = icmp eq i8 %15, 32
  %17 = sext i32 %13 to i64
  %18 = sext i32 %12 to i64
  %19 = getelementptr inbounds [100 x [100 x i8]], [100 x [100 x i8]]* %2, i64 0, i64 %17, i64 %18
  br i1 %16, label %22, label %20

20:                                               ; preds = %10
  store i8 %15, i8* %19, align 1, !tbaa !5
  %21 = add nsw i32 %12, 1
  br label %24

22:                                               ; preds = %10
  store i8 0, i8* %19, align 1, !tbaa !5
  %23 = add nsw i32 %13, 1
  br label %24

24:                                               ; preds = %20, %22
  %25 = phi i32 [ %23, %22 ], [ %13, %20 ]
  %26 = phi i32 [ 0, %22 ], [ %21, %20 ]
  %27 = add nuw nsw i64 %11, 1
  %28 = icmp eq i64 %27, %6
  br i1 %28, label %29, label %10, !llvm.loop !8

29:                                               ; preds = %24
  %30 = sext i32 %25 to i64
  %31 = sext i32 %26 to i64
  %32 = getelementptr inbounds [100 x [100 x i8]], [100 x [100 x i8]]* %2, i64 0, i64 %30, i64 %31
  store i8 0, i8* %32, align 1, !tbaa !5
  %33 = icmp sgt i32 %25, 0
  br i1 %33, label %34, label %42

34:                                               ; preds = %29
  %35 = zext i32 %25 to i64
  br label %36

36:                                               ; preds = %34, %36
  %37 = phi i64 [ %35, %34 ], [ %41, %36 ]
  %38 = getelementptr inbounds [100 x [100 x i8]], [100 x [100 x i8]]* %2, i64 0, i64 %37, i64 0
  %39 = call i32 (i8*, ...) @printf(i8* nonnull dereferenceable(1) getelementptr inbounds ([4 x i8], [4 x i8]* @.str, i64 0, i64 0), i8* nonnull %38)
  %40 = icmp sgt i64 %37, 1
  %41 = add nsw i64 %37, -1
  br i1 %40, label %36, label %42, !llvm.loop !10

42:                                               ; preds = %36, %8, %29
  %43 = call i32 @puts(i8* nonnull %4)
  call void @llvm.lifetime.end.p0i8(i64 10000, i8* nonnull %4) #6
  call void @llvm.lifetime.end.p0i8(i64 105, i8* nonnull %3) #6
  ret void
}

; Function Attrs: argmemonly mustprogress nofree nosync nounwind willreturn
declare void @llvm.lifetime.start.p0i8(i64 immarg, i8* nocapture) #1

declare i32 @gets(...) local_unnamed_addr #2

; Function Attrs: argmemonly mustprogress nofree nounwind readonly willreturn
declare i64 @strlen(i8* nocapture) local_unnamed_addr #3

; Function Attrs: nofree nounwind
declare noundef i32 @printf(i8* nocapture noundef readonly, ...) local_unnamed_addr #4

; Function Attrs: argmemonly mustprogress nofree nosync nounwind willreturn
declare void @llvm.lifetime.end.p0i8(i64 immarg, i8* nocapture) #1

; Function Attrs: nofree nounwind
declare noundef i32 @puts(i8* nocapture noundef readonly) local_unnamed_addr #5


!llvm.module.flags = !{!0, !1, !2, !3}
!llvm.ident = !{!4}

!0 = !{i32 1, !"wchar_size", i32 4}
!1 = !{i32 7, !"PIC Level", i32 2}
!2 = !{i32 7, !"PIE Level", i32 2}
!3 = !{i32 7, !"uwtable", i32 1}
!4 = !{!"clang version 13.0.0"}
!5 = !{!6, !6, i64 0}
!6 = !{!"omnipotent char", !7, i64 0}
!7 = !{!"Simple C/C++ TBAA"}
!8 = distinct !{!8, !9}
!9 = !{!"llvm.loop.mustprogress"}
!10 = distinct !{!10, !9}
